target datalayout = "e-m:e-p270:32:32-p271:32:32-p272:64:64-i64:64-i128:128-f80:128-n8:16:32:64-S128"
target triple = "x86_64-pc-linux-gnu"

%struct.FIREqualizerContext = type { ptr, ptr, ptr, ptr, ptr, ptr, ptr, ptr, ptr, ptr, ptr, ptr, ptr, ptr, ptr, i32, i32, i32, ptr, ptr, ptr, ptr, ptr, ptr, ptr, ptr, ptr, ptr, ptr, i32, i32, i64, i32, i32, ptr, ptr, ptr, ptr, double, double, i32, i32, i32, i32, i32, ptr, i32, i32, i32, i32, i32, [4096 x %struct.GainEntry] }
%struct.GainEntry = type { double, double }
%struct.OverlapIndex = type { i32, i32 }

; Function Attrs: nounwind uwtable
define internal void @fast_convolute(ptr noalias noundef %0, ptr noalias noundef %1, ptr noalias noundef %2, ptr noalias noundef %3, ptr noalias noundef %4, i32 noundef %5) #1 {
  %7 = alloca ptr, align 8
  %8 = alloca ptr, align 8
  %9 = alloca ptr, align 8
  %10 = alloca ptr, align 8
  %11 = alloca ptr, align 8
  %12 = alloca i32, align 4
  %13 = alloca ptr, align 8
  %14 = alloca ptr, align 8
  %15 = alloca ptr, align 8
  %16 = alloca i32, align 4
  %17 = alloca i32, align 4
  store ptr %0, ptr %7, align 8, !tbaa !22
  store ptr %1, ptr %8, align 8, !tbaa !99
  store ptr %2, ptr %9, align 8, !tbaa !99
  store ptr %3, ptr %10, align 8, !tbaa !102
  store ptr %4, ptr %11, align 8, !tbaa !99
  store i32 %5, ptr %12, align 4, !tbaa !25
  %18 = load i32, ptr %12, align 4, !tbaa !25
  %19 = load ptr, ptr %7, align 8, !tbaa !22
  %20 = getelementptr inbounds nuw %struct.FIREqualizerContext, ptr %19, i32 0, i32 30
  %21 = load i32, ptr %20, align 4, !tbaa !79
  %22 = icmp sle i32 %18, %21
  br i1 %22, label %23, label %182

23:                                               ; preds = %6
  call void @llvm.lifetime.start.p0(i64 8, ptr %13) #12
  %24 = load ptr, ptr %9, align 8, !tbaa !99
  %25 = load ptr, ptr %10, align 8, !tbaa !102
  %26 = getelementptr inbounds nuw %struct.OverlapIndex, ptr %25, i32 0, i32 0
  %27 = load i32, ptr %26, align 4, !tbaa !103
  %28 = load ptr, ptr %7, align 8, !tbaa !22
  %29 = getelementptr inbounds nuw %struct.FIREqualizerContext, ptr %28, i32 0, i32 16
  %30 = load i32, ptr %29, align 4, !tbaa !53
  %31 = mul nsw i32 %27, %30
  %32 = sext i32 %31 to i64
  %33 = getelementptr inbounds float, ptr %24, i64 %32
  store ptr %33, ptr %13, align 8, !tbaa !99
  call void @llvm.lifetime.start.p0(i64 8, ptr %14) #12
  %34 = load ptr, ptr %9, align 8, !tbaa !99
  %35 = load ptr, ptr %10, align 8, !tbaa !102
  %36 = getelementptr inbounds nuw %struct.OverlapIndex, ptr %35, i32 0, i32 0
  %37 = load i32, ptr %36, align 4, !tbaa !103
  %38 = icmp ne i32 %37, 0
  %39 = xor i1 %38, true
  %40 = zext i1 %39 to i32
  %41 = load ptr, ptr %7, align 8, !tbaa !22
  %42 = getelementptr inbounds nuw %struct.FIREqualizerContext, ptr %41, i32 0, i32 16
  %43 = load i32, ptr %42, align 4, !tbaa !53
  %44 = mul nsw i32 %40, %43
  %45 = sext i32 %44 to i64
  %46 = getelementptr inbounds float, ptr %34, i64 %45
  %47 = load ptr, ptr %10, align 8, !tbaa !102
  %48 = getelementptr inbounds nuw %struct.OverlapIndex, ptr %47, i32 0, i32 1
  %49 = load i32, ptr %48, align 4, !tbaa !105
  %50 = sext i32 %49 to i64
  %51 = getelementptr inbounds float, ptr %46, i64 %50
  store ptr %51, ptr %14, align 8, !tbaa !99
  call void @llvm.lifetime.start.p0(i64 8, ptr %15) #12
  %52 = load ptr, ptr %7, align 8, !tbaa !22
  %53 = getelementptr inbounds nuw %struct.FIREqualizerContext, ptr %52, i32 0, i32 24
  %54 = load ptr, ptr %53, align 8, !tbaa !94
  store ptr %54, ptr %15, align 8, !tbaa !99
  call void @llvm.lifetime.start.p0(i64 4, ptr %16) #12
  %55 = load ptr, ptr %7, align 8, !tbaa !22
  %56 = getelementptr inbounds nuw %struct.FIREqualizerContext, ptr %55, i32 0, i32 29
  %57 = load i32, ptr %56, align 8, !tbaa !70
  %58 = sdiv i32 %57, 2
  store i32 %58, ptr %16, align 4, !tbaa !25
  call void @llvm.lifetime.start.p0(i64 4, ptr %17) #12
  %59 = load ptr, ptr %13, align 8, !tbaa !99
  %60 = load i32, ptr %16, align 4, !tbaa !25
  %61 = sext i32 %60 to i64
  %62 = mul i64 %61, 4
  call void @llvm.memset.p0.i64(ptr align 4 %59, i8 0, i64 %62, i1 false)
  %63 = load ptr, ptr %13, align 8, !tbaa !99
  %64 = load i32, ptr %16, align 4, !tbaa !25
  %65 = sext i32 %64 to i64
  %66 = getelementptr inbounds float, ptr %63, i64 %65
  %67 = load ptr, ptr %11, align 8, !tbaa !99
  %68 = load i32, ptr %12, align 4, !tbaa !25
  %69 = sext i32 %68 to i64
  %70 = mul i64 %69, 4
  call void @llvm.memcpy.p0.p0.i64(ptr align 4 %66, ptr align 4 %67, i64 %70, i1 false)
  %71 = load ptr, ptr %13, align 8, !tbaa !99
  %72 = load i32, ptr %16, align 4, !tbaa !25
  %73 = sext i32 %72 to i64
  %74 = getelementptr inbounds float, ptr %71, i64 %73
  %75 = load i32, ptr %12, align 4, !tbaa !25
  %76 = sext i32 %75 to i64
  %77 = getelementptr inbounds float, ptr %74, i64 %76
  %78 = load ptr, ptr %7, align 8, !tbaa !22
  %79 = getelementptr inbounds nuw %struct.FIREqualizerContext, ptr %78, i32 0, i32 16
  %80 = load i32, ptr %79, align 4, !tbaa !53
  %81 = load i32, ptr %12, align 4, !tbaa !25
  %82 = sub nsw i32 %80, %81
  %83 = load i32, ptr %16, align 4, !tbaa !25
  %84 = sub nsw i32 %82, %83
  %85 = sext i32 %84 to i64
  %86 = mul i64 %85, 4
  call void @llvm.memset.p0.i64(ptr align 4 %77, i8 0, i64 %86, i1 false)
  %87 = load ptr, ptr %7, align 8, !tbaa !22
  %88 = getelementptr inbounds nuw %struct.FIREqualizerContext, ptr %87, i32 0, i32 6
  %89 = load ptr, ptr %88, align 8, !tbaa !115
  %90 = load ptr, ptr %7, align 8, !tbaa !22
  %91 = getelementptr inbounds nuw %struct.FIREqualizerContext, ptr %90, i32 0, i32 5
  %92 = load ptr, ptr %91, align 8, !tbaa !116
  %93 = load ptr, ptr %15, align 8, !tbaa !99
  %94 = load ptr, ptr %13, align 8, !tbaa !99
  call void %89(ptr noundef %92, ptr noundef %93, ptr noundef %94, i64 noundef 4)
  store i32 0, ptr %17, align 4, !tbaa !25
  br label %95

95:                                               ; preds = %128, %23
  %96 = load i32, ptr %17, align 4, !tbaa !25
  %97 = load ptr, ptr %7, align 8, !tbaa !22
  %98 = getelementptr inbounds nuw %struct.FIREqualizerContext, ptr %97, i32 0, i32 16
  %99 = load i32, ptr %98, align 4, !tbaa !53
  %100 = sdiv i32 %99, 2
  %101 = icmp sle i32 %96, %100
  br i1 %101, label %102, label %131

102:                                              ; preds = %95
  %103 = load ptr, ptr %8, align 8, !tbaa !99
  %104 = load i32, ptr %17, align 4, !tbaa !25
  %105 = sext i32 %104 to i64
  %106 = getelementptr inbounds float, ptr %103, i64 %105
  %107 = load float, ptr %106, align 4, !tbaa !75
  %108 = load ptr, ptr %15, align 8, !tbaa !99
  %109 = load i32, ptr %17, align 4, !tbaa !25
  %110 = mul nsw i32 2, %109
  %111 = sext i32 %110 to i64
  %112 = getelementptr inbounds float, ptr %108, i64 %111
  %113 = load float, ptr %112, align 4, !tbaa !75
  %114 = fmul nsz float %113, %107
  store float %114, ptr %112, align 4, !tbaa !75
  %115 = load ptr, ptr %8, align 8, !tbaa !99
  %116 = load i32, ptr %17, align 4, !tbaa !25
  %117 = sext i32 %116 to i64
  %118 = getelementptr inbounds float, ptr %115, i64 %117
  %119 = load float, ptr %118, align 4, !tbaa !75
  %120 = load ptr, ptr %15, align 8, !tbaa !99
  %121 = load i32, ptr %17, align 4, !tbaa !25
  %122 = mul nsw i32 2, %121
  %123 = add nsw i32 %122, 1
  %124 = sext i32 %123 to i64
  %125 = getelementptr inbounds float, ptr %120, i64 %124
  %126 = load float, ptr %125, align 4, !tbaa !75
  %127 = fmul nsz float %126, %119
  store float %127, ptr %125, align 4, !tbaa !75
  br label %128

128:                                              ; preds = %102
  %129 = load i32, ptr %17, align 4, !tbaa !25
  %130 = add nsw i32 %129, 1
  store i32 %130, ptr %17, align 4, !tbaa !25
  br label %95, !llvm.loop !117

131:                                              ; preds = %95
  %132 = load ptr, ptr %7, align 8, !tbaa !22
  %133 = getelementptr inbounds nuw %struct.FIREqualizerContext, ptr %132, i32 0, i32 8
  %134 = load ptr, ptr %133, align 8, !tbaa !118
  %135 = load ptr, ptr %7, align 8, !tbaa !22
  %136 = getelementptr inbounds nuw %struct.FIREqualizerContext, ptr %135, i32 0, i32 7
  %137 = load ptr, ptr %136, align 8, !tbaa !119
  %138 = load ptr, ptr %13, align 8, !tbaa !99
  %139 = load ptr, ptr %15, align 8, !tbaa !99
  call void %134(ptr noundef %137, ptr noundef %138, ptr noundef %139, i64 noundef 8)
  store i32 0, ptr %17, align 4, !tbaa !25
  br label %140

140:                                              ; preds = %162, %131
  %141 = load i32, ptr %17, align 4, !tbaa !25
  %142 = load ptr, ptr %7, align 8, !tbaa !22
  %143 = getelementptr inbounds nuw %struct.FIREqualizerContext, ptr %142, i32 0, i32 16
  %144 = load i32, ptr %143, align 4, !tbaa !53
  %145 = load ptr, ptr %10, align 8, !tbaa !102
  %146 = getelementptr inbounds nuw %struct.OverlapIndex, ptr %145, i32 0, i32 1
  %147 = load i32, ptr %146, align 4, !tbaa !105
  %148 = sub nsw i32 %144, %147
  %149 = icmp slt i32 %141, %148
  br i1 %149, label %150, label %165

150:                                              ; preds = %140
  %151 = load ptr, ptr %14, align 8, !tbaa !99
  %152 = load i32, ptr %17, align 4, !tbaa !25
  %153 = sext i32 %152 to i64
  %154 = getelementptr inbounds float, ptr %151, i64 %153
  %155 = load float, ptr %154, align 4, !tbaa !75
  %156 = load ptr, ptr %13, align 8, !tbaa !99
  %157 = load i32, ptr %17, align 4, !tbaa !25
  %158 = sext i32 %157 to i64
  %159 = getelementptr inbounds float, ptr %156, i64 %158
  %160 = load float, ptr %159, align 4, !tbaa !75
  %161 = fadd nsz float %160, %155
  store float %161, ptr %159, align 4, !tbaa !75
  br label %162

162:                                              ; preds = %150
  %163 = load i32, ptr %17, align 4, !tbaa !25
  %164 = add nsw i32 %163, 1
  store i32 %164, ptr %17, align 4, !tbaa !25
  br label %140, !llvm.loop !120

165:                                              ; preds = %140
  %166 = load ptr, ptr %11, align 8, !tbaa !99
  %167 = load ptr, ptr %13, align 8, !tbaa !99
  %168 = load i32, ptr %12, align 4, !tbaa !25
  %169 = sext i32 %168 to i64
  %170 = mul i64 %169, 4
  call void @llvm.memcpy.p0.p0.i64(ptr align 4 %166, ptr align 4 %167, i64 %170, i1 false)
  %171 = load ptr, ptr %10, align 8, !tbaa !102
  %172 = getelementptr inbounds nuw %struct.OverlapIndex, ptr %171, i32 0, i32 0
  %173 = load i32, ptr %172, align 4, !tbaa !103
  %174 = icmp ne i32 %173, 0
  %175 = xor i1 %174, true
  %176 = zext i1 %175 to i32
  %177 = load ptr, ptr %10, align 8, !tbaa !102
  %178 = getelementptr inbounds nuw %struct.OverlapIndex, ptr %177, i32 0, i32 0
  store i32 %176, ptr %178, align 4, !tbaa !103
  %179 = load i32, ptr %12, align 4, !tbaa !25
  %180 = load ptr, ptr %10, align 8, !tbaa !102
  %181 = getelementptr inbounds nuw %struct.OverlapIndex, ptr %180, i32 0, i32 1
  store i32 %179, ptr %181, align 4, !tbaa !105
  call void @llvm.lifetime.end.p0(i64 4, ptr %17) #12
  call void @llvm.lifetime.end.p0(i64 4, ptr %16) #12
  call void @llvm.lifetime.end.p0(i64 8, ptr %15) #12
  call void @llvm.lifetime.end.p0(i64 8, ptr %14) #12
  call void @llvm.lifetime.end.p0(i64 8, ptr %13) #12
  br label %231

182:                                              ; preds = %6
  br label %183

183:                                              ; preds = %190, %182
  %184 = load i32, ptr %12, align 4, !tbaa !25
  %185 = load ptr, ptr %7, align 8, !tbaa !22
  %186 = getelementptr inbounds nuw %struct.FIREqualizerContext, ptr %185, i32 0, i32 30
  %187 = load i32, ptr %186, align 4, !tbaa !79
  %188 = mul nsw i32 %187, 2
  %189 = icmp sgt i32 %184, %188
  br i1 %189, label %190, label %210

190:                                              ; preds = %183
  %191 = load ptr, ptr %7, align 8, !tbaa !22
  %192 = load ptr, ptr %8, align 8, !tbaa !99
  %193 = load ptr, ptr %9, align 8, !tbaa !99
  %194 = load ptr, ptr %10, align 8, !tbaa !102
  %195 = load ptr, ptr %11, align 8, !tbaa !99
  %196 = load ptr, ptr %7, align 8, !tbaa !22
  %197 = getelementptr inbounds nuw %struct.FIREqualizerContext, ptr %196, i32 0, i32 30
  %198 = load i32, ptr %197, align 4, !tbaa !79
  call void @fast_convolute(ptr noundef %191, ptr noundef %192, ptr noundef %193, ptr noundef %194, ptr noundef %195, i32 noundef %198)
  %199 = load ptr, ptr %7, align 8, !tbaa !22
  %200 = getelementptr inbounds nuw %struct.FIREqualizerContext, ptr %199, i32 0, i32 30
  %201 = load i32, ptr %200, align 4, !tbaa !79
  %202 = load ptr, ptr %11, align 8, !tbaa !99
  %203 = sext i32 %201 to i64
  %204 = getelementptr inbounds float, ptr %202, i64 %203
  store ptr %204, ptr %11, align 8, !tbaa !99
  %205 = load ptr, ptr %7, align 8, !tbaa !22
  %206 = getelementptr inbounds nuw %struct.FIREqualizerContext, ptr %205, i32 0, i32 30
  %207 = load i32, ptr %206, align 4, !tbaa !79
  %208 = load i32, ptr %12, align 4, !tbaa !25
  %209 = sub nsw i32 %208, %207
  store i32 %209, ptr %12, align 4, !tbaa !25
  br label %183, !llvm.loop !121

210:                                              ; preds = %183
  %211 = load ptr, ptr %7, align 8, !tbaa !22
  %212 = load ptr, ptr %8, align 8, !tbaa !99
  %213 = load ptr, ptr %9, align 8, !tbaa !99
  %214 = load ptr, ptr %10, align 8, !tbaa !102
  %215 = load ptr, ptr %11, align 8, !tbaa !99
  %216 = load i32, ptr %12, align 4, !tbaa !25
  %217 = sdiv i32 %216, 2
  call void @fast_convolute(ptr noundef %211, ptr noundef %212, ptr noundef %213, ptr noundef %214, ptr noundef %215, i32 noundef %217)
  %218 = load ptr, ptr %7, align 8, !tbaa !22
  %219 = load ptr, ptr %8, align 8, !tbaa !99
  %220 = load ptr, ptr %9, align 8, !tbaa !99
  %221 = load ptr, ptr %10, align 8, !tbaa !102
  %222 = load ptr, ptr %11, align 8, !tbaa !99
  %223 = load i32, ptr %12, align 4, !tbaa !25
  %224 = sdiv i32 %223, 2
  %225 = sext i32 %224 to i64
  %226 = getelementptr inbounds float, ptr %222, i64 %225
  %227 = load i32, ptr %12, align 4, !tbaa !25
  %228 = load i32, ptr %12, align 4, !tbaa !25
  %229 = sdiv i32 %228, 2
  %230 = sub nsw i32 %227, %229
  call void @fast_convolute(ptr noundef %218, ptr noundef %219, ptr noundef %220, ptr noundef %221, ptr noundef %226, i32 noundef %230)
  br label %231

231:                                              ; preds = %210, %165
  ret void
}