; Function Attrs: nounwind uwtable
define internal fastcc void @fast_convolute(ptr noalias noundef %0, ptr noalias noundef %1, ptr noalias noundef %2, ptr noalias noundef %3, ptr noalias noundef %4, i32 noundef %5) unnamed_addr #1 {
  %7 = getelementptr inbounds nuw i8, ptr %0, i64 228
  %8 = load i32, ptr %7, align 4, !tbaa !72
  %.not98 = icmp sgt i32 %5, %8
  br i1 %.not98, label %.preheader, label %tailrecurse._crit_edge

.preheader:                                       ; preds = %6, %tailrecurse
  %9 = phi i32 [ %82, %tailrecurse ], [ %8, %6 ]
  %.tr93100 = phi i32 [ %81, %tailrecurse ], [ %5, %6 ]
  %.tr9299 = phi ptr [ %80, %tailrecurse ], [ %4, %6 ]
  %10 = shl nsw i32 %9, 1
  %11 = icmp sgt i32 %.tr93100, %10
  br i1 %11, label %.lr.ph, label %tailrecurse

tailrecurse._crit_edge:                           ; preds = %tailrecurse, %6
  %.tr92.lcssa = phi ptr [ %4, %6 ], [ %80, %tailrecurse ]
  %.tr93.lcssa = phi i32 [ %5, %6 ], [ %81, %tailrecurse ]
  %12 = load i32, ptr %3, align 4, !tbaa !91
  %13 = getelementptr inbounds nuw i8, ptr %0, i64 124
  %14 = load i32, ptr %13, align 4, !tbaa !47
  %15 = mul nsw i32 %14, %12
  %16 = sext i32 %15 to i64
  %17 = getelementptr inbounds float, ptr %2, i64 %16
  %.not86 = icmp eq i32 %12, 0
  %18 = select i1 %.not86, i32 %14, i32 0
  %19 = sext i32 %18 to i64
  %20 = getelementptr inbounds float, ptr %2, i64 %19
  %21 = getelementptr inbounds nuw i8, ptr %3, i64 4
  %22 = load i32, ptr %21, align 4, !tbaa !93
  %23 = sext i32 %22 to i64
  %24 = getelementptr inbounds float, ptr %20, i64 %23
  %25 = getelementptr inbounds nuw i8, ptr %0, i64 184
  %26 = load ptr, ptr %25, align 8, !tbaa !86
  %27 = getelementptr inbounds nuw i8, ptr %0, i64 224
  %28 = load i32, ptr %27, align 8, !tbaa !62
  %29 = sdiv i32 %28, 2
  %30 = sext i32 %29 to i64
  %31 = shl nsw i64 %30, 2
  tail call void @llvm.memset.p0.i64(ptr align 4 %17, i8 0, i64 %31, i1 false)
  %32 = getelementptr inbounds float, ptr %17, i64 %30
  %33 = sext i32 %.tr93.lcssa to i64
  %34 = shl nsw i64 %33, 2
  tail call void @llvm.memcpy.p0.p0.i64(ptr align 4 %32, ptr align 4 %.tr92.lcssa, i64 %34, i1 false)
  %35 = getelementptr inbounds float, ptr %32, i64 %33
  %36 = add i32 %.tr93.lcssa, %29
  %37 = sub i32 %14, %36
  %38 = sext i32 %37 to i64
  %39 = shl nsw i64 %38, 2
  tail call void @llvm.memset.p0.i64(ptr align 4 %35, i8 0, i64 %39, i1 false)
  %40 = getelementptr inbounds nuw i8, ptr %0, i64 48
  %41 = load ptr, ptr %40, align 8, !tbaa !103
  %42 = getelementptr inbounds nuw i8, ptr %0, i64 40
  %43 = load ptr, ptr %42, align 8, !tbaa !104
  tail call void %41(ptr noundef %43, ptr noundef %26, ptr noundef %17, i64 noundef 4) #14
  %44 = load i32, ptr %13, align 4, !tbaa !47
  %.not87103 = icmp slt i32 %44, -1
  br i1 %.not87103, label %._crit_edge107, label %.lr.ph106.preheader

.lr.ph106.preheader:                              ; preds = %tailrecurse._crit_edge
  %45 = sdiv i32 %44, 2
  %46 = add nuw nsw i32 %45, 1
  %wide.trip.count = zext nneg i32 %46 to i64
  br label %.lr.ph106

.lr.ph106:                                        ; preds = %.lr.ph106.preheader, %.lr.ph106
  %indvars.iv = phi i64 [ 0, %.lr.ph106.preheader ], [ %indvars.iv.next, %.lr.ph106 ]
  %47 = getelementptr inbounds nuw float, ptr %1, i64 %indvars.iv
  %48 = load float, ptr %47, align 4, !tbaa !67
  %.idx = shl nuw nsw i64 %indvars.iv, 3
  %49 = getelementptr inbounds nuw i8, ptr %26, i64 %.idx
  %50 = load float, ptr %49, align 4, !tbaa !67
  %51 = fmul nsz float %48, %50
  store float %51, ptr %49, align 4, !tbaa !67
  %52 = load float, ptr %47, align 4, !tbaa !67
  %53 = getelementptr inbounds nuw i8, ptr %49, i64 4
  %54 = load float, ptr %53, align 4, !tbaa !67
  %55 = fmul nsz float %52, %54
  store float %55, ptr %53, align 4, !tbaa !67
  %indvars.iv.next = add nuw nsw i64 %indvars.iv, 1
  %exitcond.not = icmp eq i64 %indvars.iv.next, %wide.trip.count
  br i1 %exitcond.not, label %._crit_edge107, label %.lr.ph106, !llvm.loop !105

._crit_edge107:                                   ; preds = %.lr.ph106, %tailrecurse._crit_edge
  %56 = getelementptr inbounds nuw i8, ptr %0, i64 64
  %57 = load ptr, ptr %56, align 8, !tbaa !106
  %58 = getelementptr inbounds nuw i8, ptr %0, i64 56
  %59 = load ptr, ptr %58, align 8, !tbaa !107
  tail call void %57(ptr noundef %59, ptr noundef %17, ptr noundef %26, i64 noundef 8) #14
  %60 = load i32, ptr %13, align 4, !tbaa !47
  %61 = load i32, ptr %21, align 4, !tbaa !93
  %62 = sub nsw i32 %60, %61
  %63 = icmp sgt i32 %62, 0
  br i1 %63, label %.lr.ph110.preheader, label %._crit_edge111

.lr.ph110.preheader:                              ; preds = %._crit_edge107
  %wide.trip.count119 = zext nneg i32 %62 to i64
  br label %.lr.ph110

.lr.ph110:                                        ; preds = %.lr.ph110.preheader, %.lr.ph110
  %indvars.iv116 = phi i64 [ 0, %.lr.ph110.preheader ], [ %indvars.iv.next117, %.lr.ph110 ]
  %64 = getelementptr inbounds nuw float, ptr %24, i64 %indvars.iv116
  %65 = load float, ptr %64, align 4, !tbaa !67
  %66 = getelementptr inbounds nuw float, ptr %17, i64 %indvars.iv116
  %67 = load float, ptr %66, align 4, !tbaa !67
  %68 = fadd nsz float %65, %67
  store float %68, ptr %66, align 4, !tbaa !67
  %indvars.iv.next117 = add nuw nsw i64 %indvars.iv116, 1
  %exitcond120.not = icmp eq i64 %indvars.iv.next117, %wide.trip.count119
  br i1 %exitcond120.not, label %._crit_edge111, label %.lr.ph110, !llvm.loop !108

._crit_edge111:                                   ; preds = %.lr.ph110, %._crit_edge107
  tail call void @llvm.memcpy.p0.p0.i64(ptr align 4 %.tr92.lcssa, ptr align 4 %17, i64 %34, i1 false)
  %69 = load i32, ptr %3, align 4, !tbaa !91
  %.not88 = icmp eq i32 %69, 0
  %70 = zext i1 %.not88 to i32
  store i32 %70, ptr %3, align 4, !tbaa !91
  store i32 %.tr93.lcssa, ptr %21, align 4, !tbaa !93
  ret void

.lr.ph:                                           ; preds = %.preheader, %.lr.ph
  %71 = phi i32 [ %72, %.lr.ph ], [ %9, %.preheader ]
  %.08296 = phi ptr [ %74, %.lr.ph ], [ %.tr9299, %.preheader ]
  %.08395 = phi i32 [ %75, %.lr.ph ], [ %.tr93100, %.preheader ]
  tail call fastcc void @fast_convolute(ptr noundef nonnull %0, ptr noundef %1, ptr noundef %2, ptr noundef %3, ptr noundef %.08296, i32 noundef %71)
  %72 = load i32, ptr %7, align 4, !tbaa !72
  %73 = sext i32 %72 to i64
  %74 = getelementptr inbounds float, ptr %.08296, i64 %73
  %75 = sub nsw i32 %.08395, %72
  %76 = shl nsw i32 %72, 1
  %77 = icmp sgt i32 %75, %76
  br i1 %77, label %.lr.ph, label %tailrecurse, !llvm.loop !109

tailrecurse:                                      ; preds = %.lr.ph, %.preheader
  %.083.lcssa = phi i32 [ %.tr93100, %.preheader ], [ %75, %.lr.ph ]
  %.082.lcssa = phi ptr [ %.tr9299, %.preheader ], [ %74, %.lr.ph ]
  %78 = sdiv i32 %.083.lcssa, 2
  tail call fastcc void @fast_convolute(ptr noundef nonnull %0, ptr noundef %1, ptr noundef %2, ptr noundef %3, ptr noundef %.082.lcssa, i32 noundef %78)
  %79 = sext i32 %78 to i64
  %80 = getelementptr inbounds float, ptr %.082.lcssa, i64 %79
  %81 = sub nsw i32 %.083.lcssa, %78
  %82 = load i32, ptr %7, align 4, !tbaa !72
  %.not = icmp sgt i32 %81, %82
  br i1 %.not, label %.preheader, label %tailrecurse._crit_edge
}